target datalayout = "e-m:e-p270:32:32-p271:32:32-p272:64:64-i64:64-i128:128-f80:128-n8:16:32:64-S128"
target triple = "x86_64-pc-linux-gnu"

%struct.AVRational = type { i32, i32 }
%struct.AVCodecContext = type { ptr, i32, i32, ptr, i32, i32, ptr, ptr, ptr, i64, i32, i32, ptr, i32, %struct.AVRational, %struct.AVRational, %struct.AVRational, i32, i32, i32, i32, i32, %struct.AVRational, i32, i32, i32, i32, i32, i32, i32, i32, i32, i32, i32, ptr, ptr, i32, float, float, float, float, float, float, float, float, float, i32, i32, i32, i32, i32, i32, i32, i32, i32, i32, i32, i32, ptr, ptr, ptr, i32, i32, i32, i32, i32, i32, i32, i32, i32, i32, %struct.AVChannelLayout, i32, i32, i32, i32, i32, i32, i32, i32, ptr, i32, i32, i32, float, float, i32, i32, i32, i32, i32, ptr, i64, i64, float, float, i32, i32, ptr, ptr, i32, i32, i32, i32, i32, ptr, ptr, ptr, ptr, i32, i32, [8 x i64], i32, i32, i32, i32, i32, i32, i32, ptr, ptr, i32, i32, i32, i32, i32, i32, i32, i32, i32, i32, ptr, ptr, i32, i32, ptr, ptr, ptr, ptr, i32, i32, i64, i32, i32, i64, ptr, i64, ptr, i32, ptr, i32 }
%struct.AVChannelLayout = type { i32, i32, %union.anon.1, ptr }
%union.anon.1 = type { i64 }
%struct.CCaptionSubContext = type { ptr, ptr, i32, i32, i32, [2 x %struct.Screen], i32, i8, i8, i8, i8, i8, i8, [2 x %struct.AVBPrint], i32, i32, i32, i32, [2 x i64], i32, i64, [2 x i8], i32 }
%struct.Screen = type { [16 x [33 x i8]], [16 x [33 x i8]], [16 x [33 x i8]], [16 x [33 x i8]], [16 x [33 x i8]], i16 }
%struct.AVBPrint = type { ptr, i32, i32, i32, [1 x i8], [1000 x i8] }

; Function Attrs: cold nounwind optsize uwtable
define internal i32 @close_decoder(ptr noundef %0) #0 {
  %2 = alloca ptr, align 8
  %3 = alloca ptr, align 8
  store ptr %0, ptr %2, align 8, !tbaa !4
  call void @llvm.lifetime.start.p0(i64 8, ptr %3) #8
  %4 = load ptr, ptr %2, align 8, !tbaa !4
  %5 = getelementptr inbounds nuw %struct.AVCodecContext, ptr %4, i32 0, i32 6
  %6 = load ptr, ptr %5, align 8, !tbaa !9
  store ptr %6, ptr %3, align 8, !tbaa !29
  %7 = load ptr, ptr %3, align 8, !tbaa !29
  %8 = getelementptr inbounds nuw %struct.CCaptionSubContext, ptr %7, i32 0, i32 13
  %9 = getelementptr inbounds [2 x %struct.AVBPrint], ptr %8, i64 0, i64 0
  %10 = call i32 @av_bprint_finalize(ptr noundef %9, ptr noundef null)
  %11 = load ptr, ptr %3, align 8, !tbaa !29
  %12 = getelementptr inbounds nuw %struct.CCaptionSubContext, ptr %11, i32 0, i32 13
  %13 = getelementptr inbounds [2 x %struct.AVBPrint], ptr %12, i64 0, i64 1
  %14 = call i32 @av_bprint_finalize(ptr noundef %13, ptr noundef null)
  call void @llvm.lifetime.end.p0(i64 8, ptr %3) #8
  ret i32 0
}