; Function Attrs: cold nounwind optsize uwtable
define internal noundef i32 @close_decoder(ptr noundef readonly captures(none) %0) #0 {
  %2 = getelementptr inbounds nuw i8, ptr %0, i64 32
  %3 = load ptr, ptr %2, align 8, !tbaa !4
  %4 = getelementptr inbounds nuw i8, ptr %3, i64 5328
  %5 = tail call i32 @av_bprint_finalize(ptr noundef nonnull %4, ptr noundef null) #9
  %6 = getelementptr inbounds nuw i8, ptr %3, i64 6352
  %7 = tail call i32 @av_bprint_finalize(ptr noundef nonnull %6, ptr noundef null) #9
  ret i32 0
}